target datalayout = "e-m:e-p270:32:32-p271:32:32-p272:64:64-i64:64-i128:128-f80:128-n8:16:32:64-S128"
target triple = "x86_64-unknown-linux-gnu"

; Function Attrs: nounwind sspstrong uwtable
define hidden i32 @FLAC__bitwriter_write_raw_uint32_little_endian(ptr noundef %bw, i32 noundef %val) #0 {
entry:
  %retval = alloca i32, align 4
  %bw.addr = alloca ptr, align 8
  %val.addr = alloca i32, align 4
  store ptr %bw, ptr %bw.addr, align 8
  store i32 %val, ptr %val.addr, align 4
  %0 = load ptr, ptr %bw.addr, align 8
  %1 = load i32, ptr %val.addr, align 4
  %and = and i32 %1, 255
  %call = call i32 @FLAC__bitwriter_write_raw_uint32_nocheck(ptr noundef %0, i32 noundef %and, i32 noundef 8)
  %tobool = icmp ne i32 %call, 0
  br i1 %tobool, label %if.end, label %if.then

if.then:                                          ; preds = %entry
  store i32 0, ptr %retval, align 4
  br label %return

if.end:                                           ; preds = %entry
  %2 = load ptr, ptr %bw.addr, align 8
  %3 = load i32, ptr %val.addr, align 4
  %shr = lshr i32 %3, 8
  %and1 = and i32 %shr, 255
  %call2 = call i32 @FLAC__bitwriter_write_raw_uint32_nocheck(ptr noundef %2, i32 noundef %and1, i32 noundef 8)
  %tobool3 = icmp ne i32 %call2, 0
  br i1 %tobool3, label %if.end5, label %if.then4

if.then4:                                         ; preds = %if.end
  store i32 0, ptr %retval, align 4
  br label %return

if.end5:                                          ; preds = %if.end
  %4 = load ptr, ptr %bw.addr, align 8
  %5 = load i32, ptr %val.addr, align 4
  %shr6 = lshr i32 %5, 16
  %and7 = and i32 %shr6, 255
  %call8 = call i32 @FLAC__bitwriter_write_raw_uint32_nocheck(ptr noundef %4, i32 noundef %and7, i32 noundef 8)
  %tobool9 = icmp ne i32 %call8, 0
  br i1 %tobool9, label %if.end11, label %if.then10

if.then10:                                        ; preds = %if.end5
  store i32 0, ptr %retval, align 4
  br label %return

if.end11:                                         ; preds = %if.end5
  %6 = load ptr, ptr %bw.addr, align 8
  %7 = load i32, ptr %val.addr, align 4
  %shr12 = lshr i32 %7, 24
  %call13 = call i32 @FLAC__bitwriter_write_raw_uint32_nocheck(ptr noundef %6, i32 noundef %shr12, i32 noundef 8)
  %tobool14 = icmp ne i32 %call13, 0
  br i1 %tobool14, label %if.end16, label %if.then15

if.then15:                                        ; preds = %if.end11
  store i32 0, ptr %retval, align 4
  br label %return

if.end16:                                         ; preds = %if.end11
  store i32 1, ptr %retval, align 4
  br label %return

return:                                           ; preds = %if.end16, %if.then15, %if.then10, %if.then4, %if.then
  %8 = load i32, ptr %retval, align 4
  ret i32 %8
}