; Function Attrs: mustprogress nounwind sspstrong willreturn uwtable
define hidden range(i32 0, 2) i32 @FLAC__bitwriter_write_raw_uint32_little_endian(ptr noundef %bw, i32 noundef %val) local_unnamed_addr #2 {
entry:
  %and = and i32 %val, 255
  %call = tail call fastcc i32 @FLAC__bitwriter_write_raw_uint32_nocheck(ptr noundef %bw, i32 noundef %and, i32 noundef 8)
  %tobool.not = icmp eq i32 %call, 0
  br i1 %tobool.not, label %return, label %if.end

if.end:                                           ; preds = %entry
  %shr = lshr i32 %val, 8
  %and1 = and i32 %shr, 255
  %call2 = tail call fastcc i32 @FLAC__bitwriter_write_raw_uint32_nocheck(ptr noundef %bw, i32 noundef %and1, i32 noundef 8)
  %tobool3.not = icmp eq i32 %call2, 0
  br i1 %tobool3.not, label %return, label %if.end5

if.end5:                                          ; preds = %if.end
  %shr6 = lshr i32 %val, 16
  %and7 = and i32 %shr6, 255
  %call8 = tail call fastcc i32 @FLAC__bitwriter_write_raw_uint32_nocheck(ptr noundef %bw, i32 noundef %and7, i32 noundef 8)
  %tobool9.not = icmp eq i32 %call8, 0
  br i1 %tobool9.not, label %return, label %if.end11

if.end11:                                         ; preds = %if.end5
  %shr12 = lshr i32 %val, 24
  %call13 = tail call fastcc i32 @FLAC__bitwriter_write_raw_uint32_nocheck(ptr noundef %bw, i32 noundef %shr12, i32 noundef 8)
  br label %return

return:                                           ; preds = %if.end11, %if.end5, %if.end, %entry
  %retval.0 = phi i32 [ 0, %entry ], [ 0, %if.end ], [ 0, %if.end5 ], [ %call13, %if.end11 ]
  ret i32 %retval.0
}